; ModuleID = 'source-C-CXX/42/1264.cpp'
source_filename = "source-C-CXX/42/1264.cpp"
target datalayout = "e-m:e-p270:32:32-p271:32:32-p272:64:64-i64:64-f80:128-n8:16:32:64-S128"
target triple = "x86_64-pc-linux-gnu"

%"class.std::ios_base::Init" = type { i8 }
%"class.std::basic_istream" = type { i32 (...)**, i64, %"class.std::basic_ios" }
%"class.std::basic_ios" = type { %"class.std::ios_base", %"class.std::basic_ostream"*, i8, i8, %"class.std::basic_streambuf"*, %"class.std::ctype"*, %"class.std::num_put"*, %"class.std::num_get"* }
%"class.std::ios_base" = type { i32 (...)**, i64, i64, i32, i32, i32, %"struct.std::ios_base::_Callback_list"*, %"struct.std::ios_base::_Words", [8 x %"struct.std::ios_base::_Words"], i32, %"struct.std::ios_base::_Words"*, %"class.std::locale" }
%"struct.std::ios_base::_Callback_list" = type { %"struct.std::ios_base::_Callback_list"*, void (i32, %"class.std::ios_base"*, i32)*, i32, i32 }
%"struct.std::ios_base::_Words" = type { i8*, i64 }
%"class.std::locale" = type { %"class.std::locale::_Impl"* }
%"class.std::locale::_Impl" = type { i32, %"class.std::locale::facet"**, i64, %"class.std::locale::facet"**, i8** }
%"class.std::locale::facet" = type <{ i32 (...)**, i32, [4 x i8] }>
%"class.std::basic_ostream" = type { i32 (...)**, %"class.std::basic_ios" }
%"class.std::basic_streambuf" = type { i32 (...)**, i8*, i8*, i8*, i8*, i8*, i8*, %"class.std::locale" }
%"class.std::ctype" = type <{ %"class.std::locale::facet.base", [4 x i8], %struct.__locale_struct*, i8, [7 x i8], i32*, i32*, i16*, i8, [256 x i8], [256 x i8], i8, [6 x i8] }>
%"class.std::locale::facet.base" = type <{ i32 (...)**, i32 }>
%struct.__locale_struct = type { [13 x %struct.__locale_data*], i16*, i32*, i32*, [13 x i8*] }
%struct.__locale_data = type opaque
%"class.std::num_put" = type { %"class.std::locale::facet.base", [4 x i8] }
%"class.std::num_get" = type { %"class.std::locale::facet.base", [4 x i8] }

@_ZStL8__ioinit = internal global %"class.std::ios_base::Init" zeroinitializer, align 1
@__dso_handle = external hidden global i8
@_ZSt3cin = external global %"class.std::basic_istream", align 8
@_ZSt4cout = external global %"class.std::basic_ostream", align 8
@llvm.global_ctors = appending global [1 x { i32, void ()*, i8* }] [{ i32, void ()*, i8* } { i32 65535, void ()* @_GLOBAL__sub_I_1264.cpp, i8* null }]

declare void @_ZNSt8ios_base4InitC1Ev(%"class.std::ios_base::Init"* nonnull align 1 dereferenceable(1)) unnamed_addr #0

; Function Attrs: nounwind
declare void @_ZNSt8ios_base4InitD1Ev(%"class.std::ios_base::Init"* nonnull align 1 dereferenceable(1)) unnamed_addr #1

; Function Attrs: nofree nounwind
declare i32 @__cxa_atexit(void (i8*)*, i8*, i8*) local_unnamed_addr #2

; Function Attrs: mustprogress norecurse sspstrong uwtable
define dso_local i32 @main() local_unnamed_addr #3 {
  %1 = alloca i8, align 1
  %2 = alloca i32, align 4
  %3 = alloca [2000 x i32], align 16
  %4 = bitcast i32* %2 to i8*
  call void @llvm.lifetime.start.p0i8(i64 4, i8* nonnull %4) #9
  %5 = bitcast [2000 x i32]* %3 to i8*
  call void @llvm.lifetime.start.p0i8(i64 8000, i8* nonnull %5) #9
  call void @llvm.memset.p0i8.i64(i8* noundef nonnull align 16 dereferenceable(8000) %5, i8 0, i64 8000, i1 false)
  %6 = call nonnull align 8 dereferenceable(16) %"class.std::basic_istream"* @_ZNSirsERi(%"class.std::basic_istream"* nonnull align 8 dereferenceable(16) @_ZSt3cin, i32* nonnull align 4 dereferenceable(4) %2)
  %7 = load i32, i32* %2, align 4, !tbaa !5
  %8 = icmp sgt i32 %7, 3
  br i1 %8, label %9, label %91

9:                                                ; preds = %0, %33
  %10 = phi i32 [ %34, %33 ], [ 0, %0 ]
  %11 = phi i32 [ %35, %33 ], [ 3, %0 ]
  %12 = lshr i32 %11, 1
  %13 = call i32 @llvm.umax.i32(i32 %12, i32 2)
  %14 = icmp ult i32 %11, 4
  br i1 %14, label %29, label %25

15:                                               ; preds = %33
  %16 = icmp sgt i32 %34, 1
  br i1 %16, label %17, label %91

17:                                               ; preds = %15
  %18 = zext i32 %34 to i64
  %19 = add nsw i32 %34, -1
  %20 = zext i32 %19 to i64
  %21 = zext i32 %34 to i64
  br label %37

22:                                               ; preds = %25
  %23 = add nuw nsw i32 %26, 1
  %24 = icmp eq i32 %26, %13
  br i1 %24, label %29, label %25, !llvm.loop !9

25:                                               ; preds = %9, %22
  %26 = phi i32 [ %23, %22 ], [ 2, %9 ]
  %27 = urem i32 %11, %26
  %28 = icmp eq i32 %27, 0
  br i1 %28, label %33, label %22

29:                                               ; preds = %22, %9
  %30 = sext i32 %10 to i64
  %31 = getelementptr inbounds [2000 x i32], [2000 x i32]* %3, i64 0, i64 %30
  store i32 %11, i32* %31, align 4, !tbaa !5
  %32 = add nsw i32 %10, 1
  br label %33

33:                                               ; preds = %25, %29
  %34 = phi i32 [ %32, %29 ], [ %10, %25 ]
  %35 = add nuw nsw i32 %11, 1
  %36 = icmp eq i32 %35, %7
  br i1 %36, label %15, label %9, !llvm.loop !11

37:                                               ; preds = %17, %88
  %38 = phi i64 [ 0, %17 ], [ %89, %88 ]
  %39 = icmp ult i64 %38, %18
  br i1 %39, label %40, label %88

40:                                               ; preds = %37
  %41 = getelementptr inbounds [2000 x i32], [2000 x i32]* %3, i64 0, i64 %38
  %42 = load i32, i32* %41, align 4, !tbaa !5
  br label %43

43:                                               ; preds = %85, %40
  %44 = phi i32 [ %42, %40 ], [ %87, %85 ]
  %45 = phi i64 [ %38, %40 ], [ %83, %85 ]
  %46 = add nsw i32 %44, %42
  %47 = load i32, i32* %2, align 4, !tbaa !5
  %48 = icmp eq i32 %46, %47
  br i1 %48, label %49, label %82

49:                                               ; preds = %43
  %50 = call nonnull align 8 dereferenceable(8) %"class.std::basic_ostream"* @_ZNSolsEi(%"class.std::basic_ostream"* nonnull align 8 dereferenceable(8) @_ZSt4cout, i32 %42)
  call void @llvm.lifetime.start.p0i8(i64 1, i8* nonnull %1)
  store i8 32, i8* %1, align 1, !tbaa !12
  %51 = call nonnull align 8 dereferenceable(8) %"class.std::basic_ostream"* @_ZSt16__ostream_insertIcSt11char_traitsIcEERSt13basic_ostreamIT_T0_ES6_PKS3_l(%"class.std::basic_ostream"* nonnull align 8 dereferenceable(8) %50, i8* nonnull %1, i64 1)
  call void @llvm.lifetime.end.p0i8(i64 1, i8* nonnull %1)
  %52 = call nonnull align 8 dereferenceable(8) %"class.std::basic_ostream"* @_ZNSolsEi(%"class.std::basic_ostream"* nonnull align 8 dereferenceable(8) %51, i32 %44)
  %53 = bitcast %"class.std::basic_ostream"* %52 to i8**
  %54 = load i8*, i8** %53, align 8, !tbaa !13
  %55 = getelementptr i8, i8* %54, i64 -24
  %56 = bitcast i8* %55 to i64*
  %57 = load i64, i64* %56, align 8
  %58 = bitcast %"class.std::basic_ostream"* %52 to i8*
  %59 = add nsw i64 %57, 240
  %60 = getelementptr inbounds i8, i8* %58, i64 %59
  %61 = bitcast i8* %60 to %"class.std::ctype"**
  %62 = load %"class.std::ctype"*, %"class.std::ctype"** %61, align 8, !tbaa !15
  %63 = icmp eq %"class.std::ctype"* %62, null
  br i1 %63, label %64, label %65

64:                                               ; preds = %49
  call void @_ZSt16__throw_bad_castv() #10
  unreachable

65:                                               ; preds = %49
  %66 = getelementptr inbounds %"class.std::ctype", %"class.std::ctype"* %62, i64 0, i32 8
  %67 = load i8, i8* %66, align 8, !tbaa !19
  %68 = icmp eq i8 %67, 0
  br i1 %68, label %72, label %69

69:                                               ; preds = %65
  %70 = getelementptr inbounds %"class.std::ctype", %"class.std::ctype"* %62, i64 0, i32 9, i64 10
  %71 = load i8, i8* %70, align 1, !tbaa !12
  br label %78

72:                                               ; preds = %65
  call void @_ZNKSt5ctypeIcE13_M_widen_initEv(%"class.std::ctype"* nonnull align 8 dereferenceable(570) %62)
  %73 = bitcast %"class.std::ctype"* %62 to i8 (%"class.std::ctype"*, i8)***
  %74 = load i8 (%"class.std::ctype"*, i8)**, i8 (%"class.std::ctype"*, i8)*** %73, align 8, !tbaa !13
  %75 = getelementptr inbounds i8 (%"class.std::ctype"*, i8)*, i8 (%"class.std::ctype"*, i8)** %74, i64 6
  %76 = load i8 (%"class.std::ctype"*, i8)*, i8 (%"class.std::ctype"*, i8)** %75, align 8
  %77 = call signext i8 %76(%"class.std::ctype"* nonnull align 8 dereferenceable(570) %62, i8 signext 10)
  br label %78

78:                                               ; preds = %69, %72
  %79 = phi i8 [ %71, %69 ], [ %77, %72 ]
  %80 = call nonnull align 8 dereferenceable(8) %"class.std::basic_ostream"* @_ZNSo3putEc(%"class.std::basic_ostream"* nonnull align 8 dereferenceable(8) %52, i8 signext %79)
  %81 = call nonnull align 8 dereferenceable(8) %"class.std::basic_ostream"* @_ZNSo5flushEv(%"class.std::basic_ostream"* nonnull align 8 dereferenceable(8) %80)
  br label %82

82:                                               ; preds = %43, %78
  %83 = add nuw nsw i64 %45, 1
  %84 = icmp eq i64 %83, %21
  br i1 %84, label %88, label %85, !llvm.loop !21

85:                                               ; preds = %82
  %86 = getelementptr inbounds [2000 x i32], [2000 x i32]* %3, i64 0, i64 %83
  %87 = load i32, i32* %86, align 4, !tbaa !5
  br label %43

88:                                               ; preds = %82, %37
  %89 = add nuw nsw i64 %38, 1
  %90 = icmp eq i64 %89, %20
  br i1 %90, label %91, label %37, !llvm.loop !22

91:                                               ; preds = %88, %0, %15
  call void @llvm.lifetime.end.p0i8(i64 8000, i8* nonnull %5) #9
  call void @llvm.lifetime.end.p0i8(i64 4, i8* nonnull %4) #9
  ret i32 0
}

; Function Attrs: argmemonly mustprogress nofree nosync nounwind willreturn
declare void @llvm.lifetime.start.p0i8(i64 immarg, i8* nocapture) #4

; Function Attrs: argmemonly mustprogress nofree nounwind willreturn writeonly
declare void @llvm.memset.p0i8.i64(i8* nocapture writeonly, i8, i64, i1 immarg) #5

declare nonnull align 8 dereferenceable(16) %"class.std::basic_istream"* @_ZNSirsERi(%"class.std::basic_istream"* nonnull align 8 dereferenceable(16), i32* nonnull align 4 dereferenceable(4)) local_unnamed_addr #0

declare nonnull align 8 dereferenceable(8) %"class.std::basic_ostream"* @_ZNSolsEi(%"class.std::basic_ostream"* nonnull align 8 dereferenceable(8), i32) local_unnamed_addr #0

; Function Attrs: argmemonly mustprogress nofree nosync nounwind willreturn
declare void @llvm.lifetime.end.p0i8(i64 immarg, i8* nocapture) #4

declare nonnull align 8 dereferenceable(8) %"class.std::basic_ostream"* @_ZSt16__ostream_insertIcSt11char_traitsIcEERSt13basic_ostreamIT_T0_ES6_PKS3_l(%"class.std::basic_ostream"* nonnull align 8 dereferenceable(8), i8*, i64) local_unnamed_addr #0

declare nonnull align 8 dereferenceable(8) %"class.std::basic_ostream"* @_ZNSo3putEc(%"class.std::basic_ostream"* nonnull align 8 dereferenceable(8), i8 signext) local_unnamed_addr #0

declare nonnull align 8 dereferenceable(8) %"class.std::basic_ostream"* @_ZNSo5flushEv(%"class.std::basic_ostream"* nonnull align 8 dereferenceable(8)) local_unnamed_addr #0

; Function Attrs: noreturn
declare void @_ZSt16__throw_bad_castv() local_unnamed_addr #6

declare void @_ZNKSt5ctypeIcE13_M_widen_initEv(%"class.std::ctype"* nonnull align 8 dereferenceable(570)) local_unnamed_addr #0

; Function Attrs: sspstrong uwtable
define internal void @_GLOBAL__sub_I_1264.cpp() #7 section ".text.startup" {
  tail call void @_ZNSt8ios_base4InitC1Ev(%"class.std::ios_base::Init"* nonnull align 1 dereferenceable(1) @_ZStL8__ioinit)
  %1 = tail call i32 @__cxa_atexit(void (i8*)* bitcast (void (%"class.std::ios_base::Init"*)* @_ZNSt8ios_base4InitD1Ev to void (i8*)*), i8* getelementptr inbounds (%"class.std::ios_base::Init", %"class.std::ios_base::Init"* @_ZStL8__ioinit, i64 0, i32 0), i8* nonnull @__dso_handle) #9
  ret void
}

; Function Attrs: nofree nosync nounwind readnone speculatable willreturn
declare i32 @llvm.umax.i32(i32, i32) #8


!llvm.module.flags = !{!0, !1, !2, !3}
!llvm.ident = !{!4}

!0 = !{i32 1, !"wchar_size", i32 4}
!1 = !{i32 7, !"PIC Level", i32 2}
!2 = !{i32 7, !"PIE Level", i32 2}
!3 = !{i32 7, !"uwtable", i32 1}
!4 = !{!"clang version 13.0.0"}
!5 = !{!6, !6, i64 0}
!6 = !{!"int", !7, i64 0}
!7 = !{!"omnipotent char", !8, i64 0}
!8 = !{!"Simple C++ TBAA"}
!9 = distinct !{!9, !10}
!10 = !{!"llvm.loop.mustprogress"}
!11 = distinct !{!11, !10}
!12 = !{!7, !7, i64 0}
!13 = !{!14, !14, i64 0}
!14 = !{!"vtable pointer", !8, i64 0}
!15 = !{!16, !17, i64 240}
!16 = !{!"_ZTSSt9basic_iosIcSt11char_traitsIcEE", !17, i64 216, !7, i64 224, !18, i64 225, !17, i64 232, !17, i64 240, !17, i64 248, !17, i64 256}
!17 = !{!"any pointer", !7, i64 0}
!18 = !{!"bool", !7, i64 0}
!19 = !{!20, !7, i64 56}
!20 = !{!"_ZTSSt5ctypeIcE", !17, i64 16, !18, i64 24, !17, i64 32, !17, i64 40, !17, i64 48, !7, i64 56, !7, i64 57, !7, i64 313, !7, i64 569}
!21 = distinct !{!21, !10}
!22 = distinct !{!22, !10}
